; Function Attrs: mustprogress nofree norecurse nosync nounwind willreturn memory(argmem: readwrite) uwtable
define internal void @_ZL13_UTF16LEResetP10UConverter21UConverterResetChoice(ptr noundef captures(none) %0, i32 noundef %1) #0 {
  %3 = icmp slt i32 %1, 2
  %4 = getelementptr inbounds nuw i8, ptr %0, i64 56
  %5 = load i32, ptr %4, align 8, !tbaa !3
  %6 = and i32 %5, 15
  br i1 %3, label %7, label %.thread

7:                                                ; preds = %2
  %8 = icmp eq i32 %6, 0
  %spec.select = select i1 %8, i32 8, i32 0
  %9 = getelementptr inbounds nuw i8, ptr %0, i64 76
  store i32 %spec.select, ptr %9, align 4, !tbaa !12
  %.not = icmp ne i32 %1, 1
  %10 = and i32 %5, 15
  %11 = icmp eq i32 %10, 1
  %or.cond = select i1 %.not, i1 %11, i1 false
  br i1 %or.cond, label %12, label %14

.thread:                                          ; preds = %2
  %.old7 = icmp eq i32 %6, 1
  br i1 %.old7, label %12, label %14

12:                                               ; preds = %7, %.thread
  %13 = getelementptr inbounds nuw i8, ptr %0, i64 80
  store i32 1, ptr %13, align 8, !tbaa !13
  br label %14

14:                                               ; preds = %12, %.thread, %7
  ret void
}